Certificate:
    Data:
        Version: 3 (0x2)
        Serial Number: 2 (0x2)
        Signature Algorithm: sha256WithRSAEncryption
        Issuer: C=IN, ST=Telangana, L=Hyderabad, O=Microaxle, OU=Middleware, CN=Microaxle-Intermediate-CA/emailAddress=interca@microaxle.lab
        Validity
            Not Before: Mar 14 11:35:57 2025 GMT
            Not After : Mar 14 11:35:57 2026 GMT
        Subject: C=IN, ST=Telangana, L=Hyderabad, O=Microaxle, OU=Middleware, CN=webgui-dpapd01-route-dp-apac.apps.ocp01.microaxle.lab/emailAddress=webgui@microaxle.lab
        Subject Public Key Info:
            Public Key Algorithm: rsaEncryption
                Public-Key: (2048 bit)
                Modulus:
                    00:a0:9c:4a:ae:70:d1:a5:32:14:36:1a:82:b5:f9:
                    bd:90:ef:70:3e:e5:08:72:5c:10:45:df:77:aa:b2:
                    26:7f:f4:c4:47:08:5a:ca:66:0f:14:2f:b3:ab:3e:
                    38:78:43:a1:56:3b:5a:d4:a4:31:0c:c9:a8:8f:94:
                    09:fb:01:dc:54:58:32:ab:7e:7a:46:df:35:4a:e9:
                    69:20:d7:9f:66:74:3b:53:2a:df:29:5f:f8:fe:b3:
                    79:0e:4f:b9:f7:67:ec:a3:6e:44:b1:c5:23:19:37:
                    fd:09:37:dd:3d:d7:d3:02:50:37:b1:3e:92:3e:6c:
                    99:d9:80:2e:d8:9b:0d:93:3d:c7:90:78:c9:ef:9d:
                    5b:56:38:97:2a:07:39:46:9f:a6:68:9c:fb:38:e0:
                    15:b5:9f:08:9d:d2:db:c5:5f:f0:1a:3d:ca:ef:43:
                    88:5f:35:b9:49:23:c0:02:ce:a2:65:85:15:79:bf:
                    51:4a:d9:2e:61:d4:1d:81:7a:e2:f3:a0:51:58:e0:
                    19:b0:5f:e1:0d:17:27:20:bf:81:99:cc:bb:ca:07:
                    82:8d:67:61:fe:c3:9e:e1:86:26:60:ae:10:bc:f8:
                    b2:fd:32:27:56:d0:00:46:76:66:21:72:19:72:37:
                    e7:32:f4:48:26:fa:92:29:45:bc:1b:87:01:99:b9:
                    3b:d3
                Exponent: 65537 (0x10001)
        X509v3 extensions:
            X509v3 Basic Constraints: 
                CA:FALSE
            X509v3 Key Usage: 
                Digital Signature, Key Encipherment
            X509v3 Extended Key Usage: 
                TLS Web Server Authentication, TLS Web Client Authentication
            X509v3 Subject Key Identifier: 
                0E:0B:B4:3C:7D:DC:54:81:E1:78:DA:98:40:6B:F1:8A:03:F2:3F:36
            X509v3 Authority Key Identifier: 
                52:7E:B2:32:7E:B9:5E:3B:13:D3:CD:F6:23:8B:1E:99:5E:3B:D5:9F
    Signature Algorithm: sha256WithRSAEncryption
    Signature Value:
        4b:10:02:08:2d:24:9d:62:98:55:b3:51:22:5a:1d:08:bd:71:
        36:9c:11:01:6c:07:8e:83:1d:5e:92:90:07:85:e3:ab:0c:16:
        be:6f:7b:e2:20:da:dd:4b:39:ae:c5:88:f4:5a:54:5f:94:1f:
        d3:15:41:c1:2b:5d:07:d4:c6:bb:cd:2a:31:7e:b3:03:45:01:
        80:7b:ad:e9:d9:5e:71:4b:17:35:82:ef:0f:3d:30:e3:78:0e:
        2a:f5:fe:0c:94:45:00:b2:3a:d6:5a:28:b5:cc:60:ec:6b:6d:
        c0:9a:d2:6a:8c:1d:32:44:51:de:4b:21:6d:55:e0:6e:72:ac:
        99:f5:f3:f5:b7:b2:e4:e1:bf:09:16:99:5c:e0:b9:4b:67:8a:
        a2:16:e3:2e:cc:a0:e6:e9:1d:ed:c6:7c:55:89:9c:8e:35:7b:
        d2:ba:c3:05:24:99:56:2a:de:e0:c9:a2:22:a6:89:2d:7d:74:
        d0:2a:b1:53:93:cc:b9:a1:e0:ac:f2:e7:d5:22:d4:e4:07:5e:
        10:d1:e5:ce:8d:25:7f:31:41:45:26:9f:46:52:af:b5:ac:fd:
        3f:ff:b6:c3:2f:12:9f:5c:80:66:b7:c0:70:00:51:8c:3b:23:
        dd:ba:fd:c7:49:b4:4b:a8:d3:d0:81:6c:e1:4e:cd:dc:2e:d4:
        cf:db:ba:0a:21:8d:9c:4c:e0:b5:88:45:0b:2d:ca:e9:8c:e0:
        9a:bf:16:34:ee:a8:2f:93:ce:1c:f6:04:25:50:2d:68:62:74:
        f9:92:94:08:f3:05:65:62:e0:8b:e0:8e:7d:21:63:66:46:47:
        66:c4:f9:61:24:b4:06:8b:07:e0:7a:52:da:1e:2c:ff:12:4c:
        09:b1:d8:39:bc:a2:c9:4b:6d:57:0d:ba:77:ae:60:04:3f:37:
        b0:81:78:34:90:0a:77:3c:72:cb:8e:c7:52:87:20:fa:4e:39:
        ab:ae:95:c8:d8:d7:23:e2:bb:33:5e:da:62:5e:19:e0:e5:04:
        c6:f5:91:46:ae:d7:07:90:1f:ca:f0:bc:18:0a:6b:b7:36:ce:
        cb:7e:93:0a:a7:44:5f:25:81:87:9b:40:cd:32:a6:b2:c3:ef:
        77:cc:13:f4:2c:d2:3b:95:48:45:c6:0f:b9:b5:85:fb:3e:0f:
        3c:19:2d:28:fc:a1:37:ad:11:73:cd:16:5e:ed:b6:fa:ab:fa:
        b8:5b:75:ba:bc:97:c0:32:53:8f:d0:3c:9e:90:2c:37:9d:25:
        1f:2e:dc:c3:fc:20:e4:cd:9a:53:51:c0:73:71:d6:57:f0:b0:
        78:07:7f:93:86:6b:41:d9:7c:81:e6:1d:53:0d:52:d1:ee:ea:
        3b:6d:18:f3:24:66:dc:7f
-----BEGIN CERTIFICATE-----
MIIFYTCCA0mgAwIBAgIBAjANBgkqhkiG9w0BAQsFADCBqDELMAkGA1UEBhMCSU4x
EjAQBgNVBAgMCVRlbGFuZ2FuYTESMBAGA1UEBwwJSHlkZXJhYmFkMRIwEAYDVQQK
DAlNaWNyb2F4bGUxEzARBgNVBAsMCk1pZGRsZXdhcmUxIjAgBgNVBAMMGU1pY3Jv
YXhsZS1JbnRlcm1lZGlhdGUtQ0ExJDAiBgkqhkiG9w0BCQEWFWludGVyY2FAbWlj
cm9heGxlLmxhYjAeFw0yNTAzMTQxMTM1NTdaFw0yNjAzMTQxMTM1NTdaMIHDMQsw
CQYDVQQGEwJJTjESMBAGA1UECAwJVGVsYW5nYW5hMRIwEAYDVQQHDAlIeWRlcmFi
YWQxEjAQBgNVBAoMCU1pY3JvYXhsZTETMBEGA1UECwwKTWlkZGxld2FyZTE+MDwG
A1UEAww1d2ViZ3VpLWRwYXBkMDEtcm91dGUtZHAtYXBhYy5hcHBzLm9jcDAxLm1p
Y3JvYXhsZS5sYWIxIzAhBgkqhkiG9w0BCQEWFHdlYmd1aUBtaWNyb2F4bGUubGFi
MIIBIjANBgkqhkiG9w0BAQEFAAOCAQ8AMIIBCgKCAQEAoJxKrnDRpTIUNhqCtfm9
kO9wPuUIclwQRd93qrImf/TERwhaymYPFC+zqz44eEOhVjta1KQxDMmoj5QJ+wHc
VFgyq356Rt81SulpINefZnQ7UyrfKV/4/rN5Dk+592fso25EscUjGTf9CTfdPdfT
AlA3sT6SPmyZ2YAu2JsNkz3HkHjJ751bVjiXKgc5Rp+maJz7OOAVtZ8IndLbxV/w
Gj3K70OIXzW5SSPAAs6iZYUVeb9RStkuYdQdgXri86BRWOAZsF/hDRcnIL+Bmcy7
ygeCjWdh/sOe4YYmYK4QvPiy/TInVtAARnZmIXIZcjfnMvRIJvqSKUW8G4cBmbk7
0wIDAQABo3kwdzAJBgNVHRMEAjAAMAsGA1UdDwQEAwIFoDAdBgNVHSUEFjAUBggr
BgEFBQcDAQYIKwYBBQUHAwIwHQYDVR0OBBYEFA4LtDx93FSB4XjamEBr8YoD8j82
MB8GA1UdIwQYMBaAFFJ+sjJ+uV47E9PN9iOLHpleO9WfMA0GCSqGSIb3DQEBCwUA
A4ICAQBLEAIILSSdYphVs1EiWh0IvXE2nBEBbAeOgx1ekpAHheOrDBa+b3viINrd
SzmuxYj0WlRflB/TFUHBK10H1Ma7zSoxfrMDRQGAe63p2V5xSxc1gu8PPTDjeA4q
9f4MlEUAsjrWWii1zGDsa23AmtJqjB0yRFHeSyFtVeBucqyZ9fP1t7Lk4b8JFplc
4LlLZ4qiFuMuzKDm6R3txnxViZyONXvSusMFJJlWKt7gyaIipoktfXTQKrFTk8y5
oeCs8ufVItTkB14Q0eXOjSV/MUFFJp9GUq+1rP0//7bDLxKfXIBmt8BwAFGMOyPd
uv3HSbRLqNPQgWzhTs3cLtTP27oKIY2cTOC1iEULLcrpjOCavxY07qgvk84c9gQl
UC1oYnT5kpQI8wVlYuCL4I59IWNmRkdmxPlhJLQGiwfgelLaHiz/EkwJsdg5vKLJ
S21XDbp3rmAEPzewgXg0kAp3PHLLjsdShyD6TjmrrpXI2Ncj4rszXtpiXhng5QTG
9ZFGrtcHkB/K8LwYCmu3Ns7LfpMKp0RfJYGHm0DNMqayw+93zBP0LNI7lUhFxg+5
tYX7Pg88GS0o/KE3rRFzzRZe7bb6q/q4W3W6vJfAMlOP0DyekCw3nSUfLtzD/CDk
zZpTUcBzcdZX8LB4B3+ThmtB2XyB5h1TDVLR7uo7bRjzJGbcfw==
-----END CERTIFICATE-----
