Certificate:
    Data:
        Version: 3 (0x2)
        Serial Number: 3 (0x3)
        Signature Algorithm: sha256WithRSAEncryption
        Issuer: C=IN, ST=Telangana, L=Hyderabad, O=Microaxle, OU=Middleware, CN=Microaxle-Intermediate-CA/emailAddress=interca@microaxle.lab
        Validity
            Not Before: Mar 14 14:32:42 2025 GMT
            Not After : Mar 14 14:32:42 2026 GMT
        Subject: C=IN, ST=Telangana, L=Hyderabad, O=Microaxle, OU=Middleware, CN=dpservices.microaxle.lab/emailAddress=dpservices@microaxle.lab
        Subject Public Key Info:
            Public Key Algorithm: rsaEncryption
                Public-Key: (2048 bit)
                Modulus:
                    00:b2:89:94:9c:fc:53:3c:df:21:b2:b8:19:86:72:
                    d3:bb:cc:8f:62:ce:20:05:88:3c:70:9e:02:93:85:
                    db:61:8b:62:f5:60:28:0e:03:d3:1a:7e:fb:59:8e:
                    9b:88:0a:42:65:f2:ec:1a:fa:14:12:2a:92:19:12:
                    96:60:66:2e:72:2e:7e:cc:4f:23:fa:3d:1f:52:06:
                    38:47:5e:20:97:ee:1c:76:f9:40:bf:f5:c0:28:06:
                    c7:b8:bf:ca:af:86:5f:9e:2f:17:c4:22:2d:40:63:
                    aa:5c:c7:19:23:6a:2b:56:73:00:5b:ad:56:76:00:
                    11:75:af:f9:11:6f:21:72:e7:c0:3e:e9:3a:2d:bf:
                    d6:17:d2:ee:09:76:8c:ac:f4:92:0e:e6:d0:16:2d:
                    6b:ff:cb:02:75:25:e1:d4:3e:52:56:a3:10:8b:7c:
                    d8:38:e1:83:0a:74:8a:87:1c:16:be:ae:b7:8c:96:
                    b1:ab:d9:4a:f5:c2:9f:9d:dd:a7:18:c1:32:85:0b:
                    91:75:86:1d:51:ed:c1:b3:83:bd:06:74:6e:81:9d:
                    c2:f2:15:2f:32:b4:69:05:cf:8f:66:26:89:a2:67:
                    24:8f:10:b0:9d:c7:4b:a6:9a:d4:60:49:2b:eb:36:
                    d4:98:81:6f:7e:80:2e:39:a0:23:bd:c5:9b:8a:e3:
                    fe:ff
                Exponent: 65537 (0x10001)
        X509v3 extensions:
            X509v3 Basic Constraints: 
                CA:FALSE
            X509v3 Key Usage: 
                Digital Signature, Key Encipherment
            X509v3 Extended Key Usage: 
                TLS Web Server Authentication, TLS Web Client Authentication
            X509v3 Subject Key Identifier: 
                BF:D6:50:28:A3:C0:67:D4:24:6F:AA:F4:FD:5B:29:69:E2:42:EC:B6
            X509v3 Authority Key Identifier: 
                52:7E:B2:32:7E:B9:5E:3B:13:D3:CD:F6:23:8B:1E:99:5E:3B:D5:9F
    Signature Algorithm: sha256WithRSAEncryption
    Signature Value:
        b5:15:fd:44:d8:0c:a6:0b:11:95:7c:0f:e1:c5:9a:ab:b9:1e:
        55:ac:fc:f3:8f:65:f2:b4:58:0f:28:39:29:32:10:60:cd:d8:
        67:4b:4b:aa:83:63:4a:42:07:cf:9c:3a:87:4e:02:0b:8b:15:
        d6:ac:9b:da:2c:be:c8:e8:cd:7e:c2:52:af:ab:73:59:5b:5c:
        2c:24:63:d5:9b:51:59:d8:82:46:70:d3:3a:91:ba:e9:ba:4f:
        22:b9:2e:64:9f:29:77:ae:f8:6d:a0:ec:c0:6c:e4:b0:5c:35:
        5e:68:c3:12:67:fb:b0:ce:fd:13:0c:e3:c8:f4:2c:d7:2e:55:
        db:c6:ec:09:72:ef:90:7b:a6:96:52:90:3a:8e:32:70:ec:f1:
        6e:67:cf:88:e4:ba:3e:43:76:cb:8f:04:90:93:fc:e4:c5:0b:
        8d:fa:90:eb:a5:c5:1a:02:a6:2f:7f:3c:ef:1e:22:9f:b1:5b:
        c2:6c:96:d5:54:d7:6a:1e:f1:87:4c:fc:ac:22:72:af:a5:d2:
        a3:ad:fb:29:33:7b:48:75:c3:d6:7e:84:2b:72:da:c6:9f:9a:
        ea:69:f0:f8:4e:b3:f5:17:7b:eb:58:49:dc:e2:3a:a2:15:50:
        62:81:bd:db:c6:e9:b1:3d:8b:72:b7:dd:2b:e4:5e:c6:bb:ff:
        35:3a:19:03:df:9a:aa:29:7d:fd:08:37:0b:5e:3a:9a:88:7f:
        91:4e:28:b8:8b:9d:d6:40:1e:7a:c0:0b:bc:ba:8c:fb:a9:4b:
        6d:16:c3:fa:fb:c9:c1:c3:e2:25:ca:ad:3e:e7:57:c8:c7:52:
        d7:00:d2:83:f6:39:c0:8c:88:9c:e9:9e:d6:81:eb:e3:f2:58:
        9f:d4:a1:7c:2a:3d:50:55:d9:b0:6f:02:01:24:4a:a6:08:fa:
        25:72:da:04:68:c5:dd:f1:6f:9d:e8:27:04:87:ea:1c:c2:37:
        df:76:97:30:ea:79:be:9b:8b:66:bc:71:3d:ca:6e:b7:94:50:
        c5:1f:65:bf:6c:bd:44:30:f6:57:13:e2:5b:c2:33:f5:9e:c1:
        f0:0f:13:5f:94:4d:ca:a1:af:11:45:1c:35:75:e4:24:9e:4c:
        3f:57:d4:c9:02:2b:47:b4:40:f3:ba:b7:57:9f:0b:d2:81:bf:
        43:67:3a:ad:59:b7:4f:a9:ed:06:6b:82:f7:c7:d0:22:3b:19:
        de:60:1e:7b:fc:a6:5e:bc:cf:39:e8:7c:d0:ea:eb:c9:65:7f:
        09:68:2a:2b:3d:f5:64:e4:75:da:ac:57:75:0a:03:5c:e3:e1:
        b9:2c:f9:dd:1c:43:f2:c2:76:61:1a:0c:c1:c4:46:ba:9c:2a:
        0d:72:78:e8:56:2f:b1:f2
-----BEGIN CERTIFICATE-----
MIIFSDCCAzCgAwIBAgIBAzANBgkqhkiG9w0BAQsFADCBqDELMAkGA1UEBhMCSU4x
EjAQBgNVBAgMCVRlbGFuZ2FuYTESMBAGA1UEBwwJSHlkZXJhYmFkMRIwEAYDVQQK
DAlNaWNyb2F4bGUxEzARBgNVBAsMCk1pZGRsZXdhcmUxIjAgBgNVBAMMGU1pY3Jv
YXhsZS1JbnRlcm1lZGlhdGUtQ0ExJDAiBgkqhkiG9w0BCQEWFWludGVyY2FAbWlj
cm9heGxlLmxhYjAeFw0yNTAzMTQxNDMyNDJaFw0yNjAzMTQxNDMyNDJaMIGqMQsw
CQYDVQQGEwJJTjESMBAGA1UECAwJVGVsYW5nYW5hMRIwEAYDVQQHDAlIeWRlcmFi
YWQxEjAQBgNVBAoMCU1pY3JvYXhsZTETMBEGA1UECwwKTWlkZGxld2FyZTEhMB8G
A1UEAwwYZHBzZXJ2aWNlcy5taWNyb2F4bGUubGFiMScwJQYJKoZIhvcNAQkBFhhk
cHNlcnZpY2VzQG1pY3JvYXhsZS5sYWIwggEiMA0GCSqGSIb3DQEBAQUAA4IBDwAw
ggEKAoIBAQCyiZSc/FM83yGyuBmGctO7zI9iziAFiDxwngKThdthi2L1YCgOA9Ma
fvtZjpuICkJl8uwa+hQSKpIZEpZgZi5yLn7MTyP6PR9SBjhHXiCX7hx2+UC/9cAo
Bse4v8qvhl+eLxfEIi1AY6pcxxkjaitWcwBbrVZ2ABF1r/kRbyFy58A+6Totv9YX
0u4Jdoys9JIO5tAWLWv/ywJ1JeHUPlJWoxCLfNg44YMKdIqHHBa+rreMlrGr2Ur1
wp+d3acYwTKFC5F1hh1R7cGzg70GdG6BncLyFS8ytGkFz49mJomiZySPELCdx0um
mtRgSSvrNtSYgW9+gC45oCO9xZuK4/7/AgMBAAGjeTB3MAkGA1UdEwQCMAAwCwYD
VR0PBAQDAgWgMB0GA1UdJQQWMBQGCCsGAQUFBwMBBggrBgEFBQcDAjAdBgNVHQ4E
FgQUv9ZQKKPAZ9Qkb6r0/VspaeJC7LYwHwYDVR0jBBgwFoAUUn6yMn65XjsT0832
I4semV471Z8wDQYJKoZIhvcNAQELBQADggIBALUV/UTYDKYLEZV8D+HFmqu5HlWs
/POPZfK0WA8oOSkyEGDN2GdLS6qDY0pCB8+cOodOAguLFdasm9osvsjozX7CUq+r
c1lbXCwkY9WbUVnYgkZw0zqRuum6TyK5LmSfKXeu+G2g7MBs5LBcNV5owxJn+7DO
/RMM48j0LNcuVdvG7Aly75B7ppZSkDqOMnDs8W5nz4jkuj5DdsuPBJCT/OTFC436
kOulxRoCpi9/PO8eIp+xW8JsltVU12oe8YdM/Kwicq+l0qOt+ykze0h1w9Z+hCty
2safmupp8PhOs/UXe+tYSdziOqIVUGKBvdvG6bE9i3K33SvkXsa7/zU6GQPfmqop
ff0INwteOpqIf5FOKLiLndZAHnrAC7y6jPupS20Ww/r7ycHD4iXKrT7nV8jHUtcA
0oP2OcCMiJzpntaB6+PyWJ/UoXwqPVBV2bBvAgEkSqYI+iVy2gRoxd3xb53oJwSH
6hzCN992lzDqeb6bi2a8cT3KbreUUMUfZb9svUQw9lcT4lvCM/WewfAPE1+UTcqh
rxFFHDV15CSeTD9X1MkCK0e0QPO6t1efC9KBv0NnOq1Zt0+p7QZrgvfH0CI7Gd5g
Hnv8pl68zznofNDq68llfwloKis99WTkddqsV3UKA1zj4bks+d0cQ/LCdmEaDMHE
RrqcKg1yeOhWL7Hy
-----END CERTIFICATE-----
