Certificate:
    Data:
        Version: 3 (0x2)
        Serial Number: 4 (0x4)
        Signature Algorithm: sha256WithRSAEncryption
        Issuer: C=IN, ST=Telangana, L=Hyderabad, O=Microaxle, OU=Middleware, CN=Microaxle-Intermediate-CA/emailAddress=interca@microaxle.lab
        Validity
            Not Before: Mar 20 13:09:23 2025 GMT
            Not After : Mar 20 13:09:23 2026 GMT
        Subject: C=IN, ST=Telangana, L=Hyderabad, O=Microaxle, OU=Middleware, CN=datapower.microaxle.lab/emailAddress=datapower@microaxle.lab
        Subject Public Key Info:
            Public Key Algorithm: rsaEncryption
                Public-Key: (2048 bit)
                Modulus:
                    00:e8:49:d3:fc:6a:4c:cd:13:0b:37:d5:d4:a7:ea:
                    81:65:c2:67:7d:e5:88:ce:e8:ea:4c:59:45:38:68:
                    28:f8:8e:4e:2f:32:1d:14:d5:27:92:e9:9a:d6:e5:
                    80:0b:35:e7:9b:d0:98:44:c3:15:bb:42:8a:6e:e3:
                    5b:d8:c9:d8:7c:79:9f:50:78:c6:3d:09:2f:8f:eb:
                    90:af:73:5a:a0:32:60:0c:8d:de:b3:54:96:c1:8a:
                    c1:9a:7c:79:df:23:3a:7b:b5:0c:86:b1:a6:b2:fd:
                    45:53:df:cb:5b:0c:4c:3f:4a:ea:36:6f:ab:0a:18:
                    aa:d2:d8:d2:62:fe:d6:1f:82:06:1c:0d:70:e3:2c:
                    1b:e6:2a:fd:17:67:85:22:f5:bc:09:48:a0:59:39:
                    c3:40:46:70:17:5a:eb:7a:44:3d:6e:ca:73:49:39:
                    03:e0:40:d7:09:45:0b:8a:80:26:bd:f2:3d:ab:74:
                    df:d8:1c:32:4a:db:42:70:fb:23:2c:38:70:1b:0a:
                    5d:8b:ec:39:22:b6:4a:9a:8e:66:44:c5:3c:eb:1e:
                    a1:e9:38:82:d5:76:60:b4:10:11:3e:c7:cb:f6:bf:
                    d0:39:0b:56:ba:7d:4e:29:9e:83:c8:14:83:2a:49:
                    2b:cc:30:0c:c9:0a:fb:33:4b:c8:6b:f8:b5:cb:a9:
                    75:59
                Exponent: 65537 (0x10001)
        X509v3 extensions:
            X509v3 Basic Constraints: 
                CA:FALSE
            X509v3 Key Usage: 
                Digital Signature, Key Encipherment
            X509v3 Extended Key Usage: 
                TLS Web Server Authentication, TLS Web Client Authentication
            X509v3 Subject Key Identifier: 
                F3:F2:6F:54:8A:B8:26:62:49:69:1A:26:30:C3:21:69:CE:AF:21:4D
            X509v3 Authority Key Identifier: 
                52:7E:B2:32:7E:B9:5E:3B:13:D3:CD:F6:23:8B:1E:99:5E:3B:D5:9F
    Signature Algorithm: sha256WithRSAEncryption
    Signature Value:
        79:2e:53:a1:43:65:fd:b5:39:aa:b6:3b:3b:5a:a7:4c:57:db:
        60:58:4d:b5:cd:25:99:69:93:79:1b:71:e6:72:b7:bd:33:26:
        57:a7:fb:91:ab:f4:e1:eb:e0:84:5f:ba:cc:b5:83:e1:e7:4c:
        c5:fc:9d:af:ec:26:53:55:57:6e:72:77:ac:35:70:37:86:de:
        91:db:d3:7a:15:db:a0:4a:81:65:27:6f:29:70:44:00:20:c3:
        b6:63:8e:e6:af:9d:7b:99:03:a8:72:00:ad:37:62:92:d7:87:
        f9:ce:20:9b:9b:9c:e8:a8:3e:d6:a2:87:8e:64:73:87:90:a9:
        cf:2d:28:ab:0c:59:f1:92:06:72:ea:02:86:dc:49:9a:8e:05:
        cd:56:51:a5:71:73:f4:48:e7:94:cc:d5:07:16:ee:f9:38:3a:
        4f:4d:ac:68:d6:f8:95:e6:ff:ab:ca:df:99:cb:84:8c:6e:98:
        35:c3:ca:3a:27:98:f8:44:bb:55:16:cc:c6:8e:14:6a:a2:c4:
        1a:c2:72:ed:0b:04:66:cf:ee:4d:ba:7e:01:a6:e4:d4:ef:2f:
        60:f2:7a:12:9d:77:48:07:2a:95:b4:96:b9:24:d5:83:38:24:
        c9:1b:68:13:98:12:b5:03:91:12:30:77:ed:fc:f9:4a:2c:f2:
        f0:d8:85:23:56:04:2e:f0:a3:f3:94:72:d2:6a:e2:7c:d9:04:
        aa:5d:b8:58:ed:7a:4f:4a:8d:87:99:c0:ad:e8:13:af:bc:78:
        9a:74:98:57:dc:dc:06:8c:d4:11:7e:25:8e:ca:ac:7b:9d:6a:
        d6:82:4b:cd:01:a5:04:59:4b:a2:ce:35:4e:32:6f:61:39:a6:
        aa:82:97:ea:fd:fd:a7:bb:48:f7:c8:4f:87:f7:ac:fd:b1:36:
        d4:d5:98:d7:e5:39:ce:65:fa:a6:08:ef:24:70:85:d5:a9:7e:
        0d:b2:b8:2b:9e:a7:04:ba:8d:12:84:f5:ce:4c:7d:fd:1f:2f:
        ea:07:2f:f9:09:4a:c0:2f:f2:97:94:5e:09:0f:47:ed:e8:fd:
        56:2d:5f:a6:54:b9:18:64:1b:22:3e:6a:42:39:c5:61:72:c9:
        76:dc:56:4b:a6:60:be:03:65:04:3f:e9:f5:09:6e:5c:29:71:
        23:c7:29:4e:97:cd:5e:47:82:0a:69:95:89:4a:c1:db:41:40:
        1b:47:18:fb:52:2d:cc:47:f8:da:91:41:34:4d:c1:83:21:c9:
        62:b3:41:5c:f3:d8:6f:bf:9e:2a:c3:9d:0c:79:d9:f2:44:6e:
        69:36:59:07:33:9f:3b:19:3e:fd:37:64:cf:19:da:47:bc:d2:
        e8:05:0c:b1:36:3c:d0:39
-----BEGIN CERTIFICATE-----
MIIFRjCCAy6gAwIBAgIBBDANBgkqhkiG9w0BAQsFADCBqDELMAkGA1UEBhMCSU4x
EjAQBgNVBAgMCVRlbGFuZ2FuYTESMBAGA1UEBwwJSHlkZXJhYmFkMRIwEAYDVQQK
DAlNaWNyb2F4bGUxEzARBgNVBAsMCk1pZGRsZXdhcmUxIjAgBgNVBAMMGU1pY3Jv
YXhsZS1JbnRlcm1lZGlhdGUtQ0ExJDAiBgkqhkiG9w0BCQEWFWludGVyY2FAbWlj
cm9heGxlLmxhYjAeFw0yNTAzMjAxMzA5MjNaFw0yNjAzMjAxMzA5MjNaMIGoMQsw
CQYDVQQGEwJJTjESMBAGA1UECAwJVGVsYW5nYW5hMRIwEAYDVQQHDAlIeWRlcmFi
YWQxEjAQBgNVBAoMCU1pY3JvYXhsZTETMBEGA1UECwwKTWlkZGxld2FyZTEgMB4G
A1UEAwwXZGF0YXBvd2VyLm1pY3JvYXhsZS5sYWIxJjAkBgkqhkiG9w0BCQEWF2Rh
dGFwb3dlckBtaWNyb2F4bGUubGFiMIIBIjANBgkqhkiG9w0BAQEFAAOCAQ8AMIIB
CgKCAQEA6EnT/GpMzRMLN9XUp+qBZcJnfeWIzujqTFlFOGgo+I5OLzIdFNUnkuma
1uWACzXnm9CYRMMVu0KKbuNb2MnYfHmfUHjGPQkvj+uQr3NaoDJgDI3es1SWwYrB
mnx53yM6e7UMhrGmsv1FU9/LWwxMP0rqNm+rChiq0tjSYv7WH4IGHA1w4ywb5ir9
F2eFIvW8CUigWTnDQEZwF1rrekQ9bspzSTkD4EDXCUULioAmvfI9q3Tf2BwySttC
cPsjLDhwGwpdi+w5IrZKmo5mRMU86x6h6TiC1XZgtBARPsfL9r/QOQtWun1OKZ6D
yBSDKkkrzDAMyQr7M0vIa/i1y6l1WQIDAQABo3kwdzAJBgNVHRMEAjAAMAsGA1Ud
DwQEAwIFoDAdBgNVHSUEFjAUBggrBgEFBQcDAQYIKwYBBQUHAwIwHQYDVR0OBBYE
FPPyb1SKuCZiSWkaJjDDIWnOryFNMB8GA1UdIwQYMBaAFFJ+sjJ+uV47E9PN9iOL
HpleO9WfMA0GCSqGSIb3DQEBCwUAA4ICAQB5LlOhQ2X9tTmqtjs7WqdMV9tgWE21
zSWZaZN5G3Hmcre9MyZXp/uRq/Th6+CEX7rMtYPh50zF/J2v7CZTVVducnesNXA3
ht6R29N6FdugSoFlJ28pcEQAIMO2Y47mr517mQOocgCtN2KS14f5ziCbm5zoqD7W
ooeOZHOHkKnPLSirDFnxkgZy6gKG3EmajgXNVlGlcXP0SOeUzNUHFu75ODpPTaxo
1viV5v+ryt+Zy4SMbpg1w8o6J5j4RLtVFszGjhRqosQawnLtCwRmz+5Nun4BpuTU
7y9g8noSnXdIByqVtJa5JNWDOCTJG2gTmBK1A5ESMHft/PlKLPLw2IUjVgQu8KPz
lHLSauJ82QSqXbhY7XpPSo2HmcCt6BOvvHiadJhX3NwGjNQRfiWOyqx7nWrWgkvN
AaUEWUuizjVOMm9hOaaqgpfq/f2nu0j3yE+H96z9sTbU1ZjX5TnOZfqmCO8kcIXV
qX4NsrgrnqcEuo0ShPXOTH39Hy/qBy/5CUrAL/KXlF4JD0ft6P1WLV+mVLkYZBsi
PmpCOcVhcsl23FZLpmC+A2UEP+n1CW5cKXEjxylOl81eR4IKaZWJSsHbQUAbRxj7
Ui3MR/jakUE0TcGDIclis0Fc89hvv54qw50MednyRG5pNlkHM587GT79N2TPGdpH
vNLoBQyxNjzQOQ==
-----END CERTIFICATE-----
